target datalayout = "e-m:e-p270:32:32-p271:32:32-p272:64:64-i64:64-i128:128-f80:128-n8:16:32:64-S128"
target triple = "x86_64-pc-linux-gnu"

%union.pthread_mutex_t = type { %struct.__pthread_mutex_s }
%struct.__pthread_mutex_s = type { i32, i32, i32, i32, i32, i16, i16, %struct.__pthread_internal_list }
%struct.__pthread_internal_list = type { ptr, ptr }
%struct.ccan_list_head = type { %struct.ccan_list_node }
%struct.ccan_list_node = type { ptr, ptr }
%struct.rb_thread_struct = type { %struct.ccan_list_node, i64, ptr, ptr, ptr, ptr, %struct.rb_thread_sched_item, i8, i32, i64, ptr, i64, i64, i8, i8, i32, ptr, i64, i64, i64, i64, %union.pthread_mutex_t, %struct.rb_unblock_callback, i64, ptr, %struct.ccan_list_head, ptr, %union.anon, i32, i64, ptr, i64, i32, i64, ptr, %struct.rb_ext_config }
%struct.rb_thread_sched_item = type { %struct.anon.7, %struct.rb_thread_sched_waiting, i8, i8, ptr, ptr }
%struct.anon.7 = type { %struct.ccan_list_node, %struct.ccan_list_node, %struct.ccan_list_node, %struct.ccan_list_node, %struct.ccan_list_node }
%struct.rb_thread_sched_waiting = type { i32, %struct.anon.8, %struct.ccan_list_node }
%struct.anon.8 = type { i64, i32, i32 }
%struct.rb_unblock_callback = type { ptr, ptr }
%union.anon = type { %struct.anon.9 }
%struct.anon.9 = type { i64, i64, i32 }
%struct.rb_ext_config = type { i8 }
%struct.rb_ractor_struct = type { %struct.rb_ractor_pub, %struct.rb_ractor_sync, i64, %union.pthread_cond_t, %struct.anon.16, i64, i64, i64, i32, %struct.ccan_list_node, ptr, ptr, i64, i64, i64, i64, i64, i64, ptr }
%struct.rb_ractor_pub = type { i64, i32, %struct.rb_hook_list_struct }
%struct.rb_hook_list_struct = type { ptr, i32, i32, i8, i8 }
%struct.rb_ractor_sync = type { %union.pthread_mutex_t, i8, i8, %struct.rb_ractor_queue, %struct.rb_ractor_queue, %struct.rb_ractor_basket, %struct.ractor_wait }
%struct.rb_ractor_queue = type { ptr, i32, i32, i32, i32, i32 }
%struct.rb_ractor_basket = type { %union.anon.12, i64, %union.anon.13 }
%union.anon.12 = type { i32 }
%union.anon.13 = type { %struct.anon.14 }
%struct.anon.14 = type { i64, i8 }
%struct.ractor_wait = type { i32, i32, ptr }
%union.pthread_cond_t = type { %struct.__pthread_cond_s }
%struct.__pthread_cond_s = type { %union.__atomic_wide_counter, %union.__atomic_wide_counter, [2 x i32], [2 x i32], i32, i32, [2 x i32] }
%union.__atomic_wide_counter = type { i64 }
%struct.anon.16 = type { %struct.ccan_list_head, i32, i32, i32, %struct.rb_thread_sched, ptr, ptr }
%struct.rb_thread_sched = type { %union.pthread_mutex_t, ptr, i8, i8, i8, %struct.ccan_list_head, i32, %struct.ccan_list_node }

@.str = private unnamed_addr constant [5 x i8] c"lock\00", align 1
@.str.1 = private unnamed_addr constant [19 x i8] c"pthread_mutex_lock\00", align 1
@.str.2 = private unnamed_addr constant [7 x i8] c"unlock\00", align 1
@.str.3 = private unnamed_addr constant [21 x i8] c"pthread_mutex_unlock\00", align 1
@.str.15 = private unnamed_addr constant [20 x i8] c"../thread_pthread.c\00", align 1
@rb_internal_thread_event_hooks = internal global ptr null, align 8
@.str.120 = private unnamed_addr constant [24 x i8] c"../thread_pthread.c:750\00", align 1
@.str.121 = private unnamed_addr constant [24 x i8] c"../thread_pthread.c:759\00", align 1

; Function Attrs: inlinehint nounwind sspstrong uwtable
define internal void @ccan_list_add_before_(ptr noundef %0, ptr noundef %1, ptr noundef %2, ptr noundef %3) #1 {
  %5 = alloca ptr, align 8
  %6 = alloca ptr, align 8
  %7 = alloca ptr, align 8
  %8 = alloca ptr, align 8
  store ptr %0, ptr %5, align 8, !tbaa !57
  store ptr %1, ptr %6, align 8, !tbaa !130
  store ptr %2, ptr %7, align 8, !tbaa !130
  store ptr %3, ptr %8, align 8, !tbaa !17
  %9 = load ptr, ptr %6, align 8, !tbaa !130
  %10 = load ptr, ptr %7, align 8, !tbaa !130
  %11 = getelementptr inbounds nuw %struct.ccan_list_node, ptr %10, i32 0, i32 0
  store ptr %9, ptr %11, align 8, !tbaa !125
  %12 = load ptr, ptr %6, align 8, !tbaa !130
  %13 = getelementptr inbounds nuw %struct.ccan_list_node, ptr %12, i32 0, i32 1
  %14 = load ptr, ptr %13, align 8, !tbaa !137
  %15 = load ptr, ptr %7, align 8, !tbaa !130
  %16 = getelementptr inbounds nuw %struct.ccan_list_node, ptr %15, i32 0, i32 1
  store ptr %14, ptr %16, align 8, !tbaa !137
  %17 = load ptr, ptr %7, align 8, !tbaa !130
  %18 = load ptr, ptr %6, align 8, !tbaa !130
  %19 = getelementptr inbounds nuw %struct.ccan_list_node, ptr %18, i32 0, i32 1
  %20 = load ptr, ptr %19, align 8, !tbaa !137
  %21 = getelementptr inbounds nuw %struct.ccan_list_node, ptr %20, i32 0, i32 0
  store ptr %17, ptr %21, align 8, !tbaa !125
  %22 = load ptr, ptr %7, align 8, !tbaa !130
  %23 = load ptr, ptr %6, align 8, !tbaa !130
  %24 = getelementptr inbounds nuw %struct.ccan_list_node, ptr %23, i32 0, i32 1
  store ptr %22, ptr %24, align 8, !tbaa !137
  ret void
}

; Function Attrs: inlinehint nounwind sspstrong uwtable
define internal void @ccan_list_add_tail_(ptr noundef %0, ptr noundef %1, ptr noundef %2) #1 {
  %4 = alloca ptr, align 8
  %5 = alloca ptr, align 8
  %6 = alloca ptr, align 8
  store ptr %0, ptr %4, align 8, !tbaa !57
  store ptr %1, ptr %5, align 8, !tbaa !130
  store ptr %2, ptr %6, align 8, !tbaa !17
  %7 = load ptr, ptr %4, align 8, !tbaa !57
  %8 = load ptr, ptr %4, align 8, !tbaa !57
  %9 = getelementptr inbounds nuw %struct.ccan_list_head, ptr %8, i32 0, i32 0
  %10 = load ptr, ptr %5, align 8, !tbaa !130
  %11 = load ptr, ptr %6, align 8, !tbaa !17
  call void @ccan_list_add_before_(ptr noundef %7, ptr noundef %9, ptr noundef %10, ptr noundef %11)
  ret void
}

; Function Attrs: inlinehint nounwind sspstrong uwtable
define internal i32 @ccan_list_empty_(ptr noundef %0, ptr noundef %1) #1 {
  %3 = alloca ptr, align 8
  %4 = alloca ptr, align 8
  store ptr %0, ptr %3, align 8, !tbaa !57
  store ptr %1, ptr %4, align 8, !tbaa !17
  %5 = load ptr, ptr %3, align 8, !tbaa !57
  %6 = getelementptr inbounds nuw %struct.ccan_list_head, ptr %5, i32 0, i32 0
  %7 = getelementptr inbounds nuw %struct.ccan_list_node, ptr %6, i32 0, i32 0
  %8 = load ptr, ptr %7, align 8, !tbaa !60
  %9 = load ptr, ptr %3, align 8, !tbaa !57
  %10 = getelementptr inbounds nuw %struct.ccan_list_head, ptr %9, i32 0, i32 0
  %11 = icmp eq ptr %8, %10
  %12 = zext i1 %11 to i32
  ret i32 %12
}

; Function Attrs: nounwind sspstrong uwtable
define internal void @ASSERT_thread_sched_locked(ptr noundef %0, ptr noundef %1) #0 {
  %3 = alloca ptr, align 8
  %4 = alloca ptr, align 8
  store ptr %0, ptr %3, align 8, !tbaa !47
  store ptr %1, ptr %4, align 8, !tbaa !12
  ret void
}

; Function Attrs: nounwind sspstrong uwtable
define internal void @mutex_debug(ptr noundef %0, ptr noundef %1) #0 {
  %3 = alloca ptr, align 8
  %4 = alloca ptr, align 8
  store ptr %0, ptr %3, align 8, !tbaa !17
  store ptr %1, ptr %4, align 8, !tbaa !14
  ret void
}

; Function Attrs: nounwind sspstrong uwtable
define dso_local void @rb_native_mutex_unlock(ptr noundef %0) #0 {
  %2 = alloca ptr, align 8
  %3 = alloca i32, align 4
  store ptr %0, ptr %2, align 8, !tbaa !14
  call void @llvm.lifetime.start.p0(i64 4, ptr %3) #16
  %4 = load ptr, ptr %2, align 8, !tbaa !14
  call void @mutex_debug(ptr noundef @.str.2, ptr noundef %4)
  %5 = load ptr, ptr %2, align 8, !tbaa !14
  %6 = call i32 @pthread_mutex_unlock(ptr noundef %5) #16
  store i32 %6, ptr %3, align 4, !tbaa !15
  %7 = icmp ne i32 %6, 0
  br i1 %7, label %8, label %10

8:                                                ; preds = %1
  %9 = load i32, ptr %3, align 4, !tbaa !15
  call void @rb_bug_errno(ptr noundef @.str.3, i32 noundef %9) #35
  unreachable

10:                                               ; preds = %1
  call void @llvm.lifetime.end.p0(i64 4, ptr %3) #16
  ret void
}

; Function Attrs: nounwind sspstrong uwtable
define internal void @thread_sched_enq(ptr noundef %0, ptr noundef %1) #0 {
  %3 = alloca ptr, align 8
  %4 = alloca ptr, align 8
  store ptr %0, ptr %3, align 8, !tbaa !47
  store ptr %1, ptr %4, align 8, !tbaa !12
  %5 = load ptr, ptr %3, align 8, !tbaa !47
  call void @ASSERT_thread_sched_locked(ptr noundef %5, ptr noundef null)
  %6 = load ptr, ptr %3, align 8, !tbaa !47
  %7 = getelementptr inbounds nuw %struct.rb_thread_sched, ptr %6, i32 0, i32 2
  %8 = load i8, ptr %7, align 8, !tbaa !146, !range !54, !noundef !55
  %9 = trunc i8 %8 to i1
  br i1 %9, label %10, label %27

10:                                               ; preds = %2
  %11 = load ptr, ptr %3, align 8, !tbaa !47
  %12 = getelementptr inbounds nuw %struct.rb_thread_sched, ptr %11, i32 0, i32 5
  %13 = call i32 @ccan_list_empty_(ptr noundef %12, ptr noundef @.str.120)
  %14 = icmp ne i32 %13, 0
  br i1 %14, label %15, label %26

15:                                               ; preds = %10
  %16 = load ptr, ptr %3, align 8, !tbaa !47
  %17 = load ptr, ptr %4, align 8, !tbaa !12
  %18 = getelementptr inbounds nuw %struct.rb_thread_struct, ptr %17, i32 0, i32 2
  %19 = load ptr, ptr %18, align 8, !tbaa !27
  %20 = load ptr, ptr %4, align 8, !tbaa !12
  %21 = getelementptr inbounds nuw %struct.rb_thread_struct, ptr %20, i32 0, i32 3
  %22 = load ptr, ptr %21, align 8, !tbaa !49
  %23 = load ptr, ptr %3, align 8, !tbaa !47
  %24 = getelementptr inbounds nuw %struct.rb_thread_sched, ptr %23, i32 0, i32 1
  %25 = load ptr, ptr %24, align 8, !tbaa !103
  call void @thread_sched_setup_running_threads(ptr noundef %16, ptr noundef %19, ptr noundef %22, ptr noundef null, ptr noundef null, ptr noundef %25)
  br label %26

26:                                               ; preds = %15, %10
  br label %28

27:                                               ; preds = %2
  br label %28

28:                                               ; preds = %27, %26
  %29 = load ptr, ptr %3, align 8, !tbaa !47
  %30 = getelementptr inbounds nuw %struct.rb_thread_sched, ptr %29, i32 0, i32 5
  %31 = load ptr, ptr %4, align 8, !tbaa !12
  %32 = getelementptr inbounds nuw %struct.rb_thread_struct, ptr %31, i32 0, i32 6
  %33 = getelementptr inbounds nuw %struct.rb_thread_sched_item, ptr %32, i32 0, i32 0
  %34 = getelementptr inbounds nuw %struct.anon.7, ptr %33, i32 0, i32 1
  call void @ccan_list_add_tail_(ptr noundef %30, ptr noundef %34, ptr noundef @.str.121)
  %35 = load ptr, ptr %3, align 8, !tbaa !47
  %36 = getelementptr inbounds nuw %struct.rb_thread_sched, ptr %35, i32 0, i32 6
  %37 = load i32, ptr %36, align 8, !tbaa !52
  %38 = add i32 %37, 1
  store i32 %38, ptr %36, align 8, !tbaa !52
  ret void
}

; Function Attrs: nounwind sspstrong uwtable
define internal void @thread_sched_set_running(ptr noundef %0, ptr noundef %1) #0 {
  %3 = alloca ptr, align 8
  %4 = alloca ptr, align 8
  store ptr %0, ptr %3, align 8, !tbaa !47
  store ptr %1, ptr %4, align 8, !tbaa !12
  %5 = load ptr, ptr %4, align 8, !tbaa !12
  %6 = load ptr, ptr %3, align 8, !tbaa !47
  %7 = getelementptr inbounds nuw %struct.rb_thread_sched, ptr %6, i32 0, i32 1
  store ptr %5, ptr %7, align 8, !tbaa !103
  ret void
}

; Function Attrs: nounwind sspstrong uwtable
define dso_local void @rb_native_mutex_lock(ptr noundef %0) #0 {
  %2 = alloca ptr, align 8
  %3 = alloca i32, align 4
  store ptr %0, ptr %2, align 8, !tbaa !14
  call void @llvm.lifetime.start.p0(i64 4, ptr %3) #16
  %4 = load ptr, ptr %2, align 8, !tbaa !14
  call void @mutex_debug(ptr noundef @.str, ptr noundef %4)
  %5 = load ptr, ptr %2, align 8, !tbaa !14
  %6 = call i32 @pthread_mutex_lock(ptr noundef %5) #16
  store i32 %6, ptr %3, align 4, !tbaa !15
  %7 = icmp ne i32 %6, 0
  br i1 %7, label %8, label %10

8:                                                ; preds = %1
  %9 = load i32, ptr %3, align 4, !tbaa !15
  call void @rb_bug_errno(ptr noundef @.str.1, i32 noundef %9) #35
  unreachable

10:                                               ; preds = %1
  call void @llvm.lifetime.end.p0(i64 4, ptr %3) #16
  ret void
}

; Function Attrs: nounwind sspstrong uwtable
define internal void @thread_sched_unlock_(ptr noundef %0, ptr noundef %1, ptr noundef %2, i32 noundef %3) #0 {
  %5 = alloca ptr, align 8
  %6 = alloca ptr, align 8
  %7 = alloca ptr, align 8
  %8 = alloca i32, align 4
  store ptr %0, ptr %5, align 8, !tbaa !47
  store ptr %1, ptr %6, align 8, !tbaa !12
  store ptr %2, ptr %7, align 8, !tbaa !17
  store i32 %3, ptr %8, align 4, !tbaa !15
  %9 = load ptr, ptr %5, align 8, !tbaa !47
  %10 = getelementptr inbounds nuw %struct.rb_thread_sched, ptr %9, i32 0, i32 0
  call void @rb_native_mutex_unlock(ptr noundef %10)
  ret void
}

; Function Attrs: nounwind sspstrong uwtable
define internal void @thread_sched_to_ready_common(ptr noundef %0, ptr noundef %1, i1 noundef zeroext %2, i1 noundef zeroext %3) #0 {
  %5 = alloca ptr, align 8
  %6 = alloca ptr, align 8
  %7 = alloca i8, align 1
  %8 = alloca i8, align 1
  store ptr %0, ptr %5, align 8, !tbaa !47
  store ptr %1, ptr %6, align 8, !tbaa !12
  %9 = zext i1 %2 to i8
  store i8 %9, ptr %7, align 1, !tbaa !51
  %10 = zext i1 %3 to i8
  store i8 %10, ptr %8, align 1, !tbaa !51
  %11 = load ptr, ptr @rb_internal_thread_event_hooks, align 8, !tbaa !86
  %12 = icmp ne ptr %11, null
  %13 = xor i1 %12, true
  %14 = xor i1 %13, true
  %15 = zext i1 %14 to i32
  %16 = sext i32 %15 to i64
  %17 = call i64 @llvm.expect.i64(i64 %16, i64 0)
  %18 = icmp ne i64 %17, 0
  br i1 %18, label %19, label %21

19:                                               ; preds = %4
  %20 = load ptr, ptr %6, align 8, !tbaa !12
  call void @rb_thread_execute_hooks(i32 noundef 2, ptr noundef %20)
  br label %21

21:                                               ; preds = %19, %4
  %22 = load ptr, ptr %5, align 8, !tbaa !47
  %23 = getelementptr inbounds nuw %struct.rb_thread_sched, ptr %22, i32 0, i32 1
  %24 = load ptr, ptr %23, align 8, !tbaa !103
  %25 = icmp eq ptr %24, null
  br i1 %25, label %26, label %37

26:                                               ; preds = %21
  %27 = load ptr, ptr %5, align 8, !tbaa !47
  %28 = load ptr, ptr %6, align 8, !tbaa !12
  call void @thread_sched_set_running(ptr noundef %27, ptr noundef %28)
  %29 = load i8, ptr %7, align 1, !tbaa !51, !range !54, !noundef !55
  %30 = trunc i8 %29 to i1
  br i1 %30, label %31, label %36

31:                                               ; preds = %26
  %32 = load ptr, ptr %5, align 8, !tbaa !47
  %33 = load ptr, ptr %6, align 8, !tbaa !12
  %34 = load i8, ptr %8, align 1, !tbaa !51, !range !54, !noundef !55
  %35 = trunc i8 %34 to i1
  call void @thread_sched_wakeup_running_thread(ptr noundef %32, ptr noundef %33, i1 noundef zeroext %35)
  br label %36

36:                                               ; preds = %31, %26
  br label %40

37:                                               ; preds = %21
  %38 = load ptr, ptr %5, align 8, !tbaa !47
  %39 = load ptr, ptr %6, align 8, !tbaa !12
  call void @thread_sched_enq(ptr noundef %38, ptr noundef %39)
  br label %40

40:                                               ; preds = %37, %36
  ret void
}

; Function Attrs: nounwind sspstrong uwtable
define internal void @thread_sched_lock_(ptr noundef %0, ptr noundef %1, ptr noundef %2, i32 noundef %3) #0 {
  %5 = alloca ptr, align 8
  %6 = alloca ptr, align 8
  %7 = alloca ptr, align 8
  %8 = alloca i32, align 4
  store ptr %0, ptr %5, align 8, !tbaa !47
  store ptr %1, ptr %6, align 8, !tbaa !12
  store ptr %2, ptr %7, align 8, !tbaa !17
  store i32 %3, ptr %8, align 4, !tbaa !15
  %9 = load ptr, ptr %5, align 8, !tbaa !47
  %10 = getelementptr inbounds nuw %struct.rb_thread_sched, ptr %9, i32 0, i32 0
  call void @rb_native_mutex_lock(ptr noundef %10)
  ret void
}

; Function Attrs: nounwind sspstrong uwtable
define internal void @ubf_waiting(ptr noundef %0) #0 {
  %2 = alloca ptr, align 8
  %3 = alloca ptr, align 8
  %4 = alloca ptr, align 8
  store ptr %0, ptr %2, align 8, !tbaa !14
  call void @llvm.lifetime.start.p0(i64 8, ptr %3) #16
  %5 = load ptr, ptr %2, align 8, !tbaa !14
  store ptr %5, ptr %3, align 8, !tbaa !12
  call void @llvm.lifetime.start.p0(i64 8, ptr %4) #16
  %6 = load ptr, ptr %3, align 8, !tbaa !12
  %7 = getelementptr inbounds nuw %struct.rb_thread_struct, ptr %6, i32 0, i32 2
  %8 = load ptr, ptr %7, align 8, !tbaa !27
  %9 = getelementptr inbounds nuw %struct.rb_ractor_struct, ptr %8, i32 0, i32 4
  %10 = getelementptr inbounds nuw %struct.anon.16, ptr %9, i32 0, i32 4
  store ptr %10, ptr %4, align 8, !tbaa !47
  %11 = load ptr, ptr %3, align 8, !tbaa !12
  %12 = getelementptr inbounds nuw %struct.rb_thread_struct, ptr %11, i32 0, i32 22
  %13 = getelementptr inbounds nuw %struct.rb_unblock_callback, ptr %12, i32 0, i32 0
  store ptr null, ptr %13, align 8, !tbaa !89
  %14 = load ptr, ptr %3, align 8, !tbaa !12
  %15 = getelementptr inbounds nuw %struct.rb_thread_struct, ptr %14, i32 0, i32 22
  %16 = getelementptr inbounds nuw %struct.rb_unblock_callback, ptr %15, i32 0, i32 1
  store ptr null, ptr %16, align 8, !tbaa !90
  %17 = load ptr, ptr %4, align 8, !tbaa !47
  %18 = load ptr, ptr %3, align 8, !tbaa !12
  call void @thread_sched_lock_(ptr noundef %17, ptr noundef %18, ptr noundef @.str.15, i32 noundef 1067)
  %19 = load ptr, ptr %4, align 8, !tbaa !47
  %20 = getelementptr inbounds nuw %struct.rb_thread_sched, ptr %19, i32 0, i32 1
  %21 = load ptr, ptr %20, align 8, !tbaa !103
  %22 = load ptr, ptr %3, align 8, !tbaa !12
  %23 = icmp eq ptr %21, %22
  br i1 %23, label %24, label %25

24:                                               ; preds = %1
  br label %28

25:                                               ; preds = %1
  %26 = load ptr, ptr %4, align 8, !tbaa !47
  %27 = load ptr, ptr %3, align 8, !tbaa !12
  call void @thread_sched_to_ready_common(ptr noundef %26, ptr noundef %27, i1 noundef zeroext true, i1 noundef zeroext false)
  br label %28

28:                                               ; preds = %25, %24
  %29 = load ptr, ptr %4, align 8, !tbaa !47
  %30 = load ptr, ptr %3, align 8, !tbaa !12
  call void @thread_sched_unlock_(ptr noundef %29, ptr noundef %30, ptr noundef @.str.15, i32 noundef 1076)
  call void @llvm.lifetime.end.p0(i64 8, ptr %4) #16
  call void @llvm.lifetime.end.p0(i64 8, ptr %3) #16
  ret void
}