; Function Attrs: nounwind sspstrong uwtable
define internal void @ubf_waiting(ptr noundef initializes((328, 344)) %0) #0 {
  %2 = getelementptr inbounds nuw i8, ptr %0, i64 24
  %3 = load ptr, ptr %2, align 8, !tbaa !52
  %4 = getelementptr inbounds nuw i8, ptr %3, i64 288
  %5 = getelementptr inbounds nuw i8, ptr %0, i64 328
  tail call void @llvm.memset.p0.i64(ptr noundef nonnull align 8 dereferenceable(16) %5, i8 0, i64 16, i1 false)
  %6 = tail call i32 @pthread_mutex_lock(ptr noundef nonnull %4) #17
  %.not.i.i = icmp eq i32 %6, 0
  br i1 %.not.i.i, label %thread_sched_lock_.exit, label %7

7:                                                ; preds = %1
  tail call void @rb_bug_errno(ptr noundef nonnull @.str.1, i32 noundef %6) #38
  unreachable

thread_sched_lock_.exit:                          ; preds = %1
  %8 = getelementptr inbounds nuw i8, ptr %3, i64 328
  %9 = load ptr, ptr %8, align 8, !tbaa !85
  %10 = icmp eq ptr %9, %0
  br i1 %10, label %thread_sched_to_ready_common.exit, label %11

11:                                               ; preds = %thread_sched_lock_.exit
  %12 = load ptr, ptr @rb_internal_thread_event_hooks, align 8, !tbaa !78
  %.not.i = icmp eq ptr %12, null
  br i1 %.not.i, label %14, label %13, !prof !45

13:                                               ; preds = %11
  tail call fastcc void @rb_thread_execute_hooks(i32 noundef 2, ptr noundef nonnull %0)
  %.pre = load ptr, ptr %8, align 8, !tbaa !85
  br label %14

14:                                               ; preds = %13, %11
  %15 = phi ptr [ %.pre, %13 ], [ %9, %11 ]
  %16 = icmp eq ptr %15, null
  br i1 %16, label %17, label %18

17:                                               ; preds = %14
  store ptr %0, ptr %8, align 8, !tbaa !85
  tail call fastcc void @thread_sched_wakeup_running_thread(ptr noundef nonnull %0, i1 noundef zeroext false)
  br label %thread_sched_to_ready_common.exit

18:                                               ; preds = %14
  %19 = getelementptr inbounds nuw i8, ptr %3, i64 336
  %20 = load i8, ptr %19, align 8, !tbaa !101, !range !102, !noundef !103
  %21 = trunc nuw i8 %20 to i1
  br i1 %21, label %22, label %thread_sched_enq.exit.i

22:                                               ; preds = %18
  %23 = getelementptr inbounds nuw i8, ptr %3, i64 344
  %24 = load ptr, ptr %23, align 8, !tbaa !54
  %.not.i.i12 = icmp eq ptr %24, %23
  br i1 %.not.i.i12, label %25, label %thread_sched_enq.exit.i

25:                                               ; preds = %22
  %26 = getelementptr inbounds nuw i8, ptr %0, i64 32
  %27 = load ptr, ptr %26, align 8, !tbaa !53
  tail call fastcc void @thread_sched_setup_running_threads(ptr noundef nonnull %4, ptr noundef %27, ptr noundef null, ptr noundef null, ptr noundef nonnull %15)
  br label %thread_sched_enq.exit.i

thread_sched_enq.exit.i:                          ; preds = %25, %22, %18
  %28 = getelementptr inbounds nuw i8, ptr %3, i64 344
  %29 = getelementptr inbounds nuw i8, ptr %0, i64 72
  store ptr %28, ptr %29, align 8, !tbaa !84
  %30 = getelementptr inbounds nuw i8, ptr %3, i64 352
  %31 = load ptr, ptr %30, align 8, !tbaa !83
  %32 = getelementptr inbounds nuw i8, ptr %0, i64 80
  store ptr %31, ptr %32, align 8, !tbaa !83
  store ptr %29, ptr %31, align 8, !tbaa !84
  store ptr %29, ptr %30, align 8, !tbaa !83
  %33 = getelementptr inbounds nuw i8, ptr %3, i64 360
  %34 = load i32, ptr %33, align 8, !tbaa !56
  %35 = add i32 %34, 1
  store i32 %35, ptr %33, align 8, !tbaa !56
  br label %thread_sched_to_ready_common.exit

thread_sched_to_ready_common.exit:                ; preds = %thread_sched_enq.exit.i, %17, %thread_sched_lock_.exit
  %36 = tail call i32 @pthread_mutex_unlock(ptr noundef nonnull %4) #17
  %.not.i.i13 = icmp eq i32 %36, 0
  br i1 %.not.i.i13, label %thread_sched_unlock_.exit, label %37

37:                                               ; preds = %thread_sched_to_ready_common.exit
  tail call void @rb_bug_errno(ptr noundef nonnull @.str.3, i32 noundef %36) #38
  unreachable

thread_sched_unlock_.exit:                        ; preds = %thread_sched_to_ready_common.exit
  ret void
}